target datalayout = "e-m:e-p270:32:32-p271:32:32-p272:64:64-i64:64-i128:128-f80:128-n8:16:32:64-S128"
target triple = "x86_64-pc-linux-gnu"

%struct.lua_State = type { i8, i8, i8, i8, i8, i8, i8, ptr, ptr, ptr, ptr, ptr, ptr, ptr, ptr, i32, i32, i16, i16, i32, ptr, ptr, ptr, ptr, ptr }
%struct.lua_TValue = type { %union.Value, [1 x i32], i32 }
%union.Value = type { ptr }

@.str.6 = private unnamed_addr constant [51 x i8] c"attempt to yield across metamethod/C-call boundary\00", align 1

; Function Attrs: mustprogress uwtable
define dso_local noundef i32 @_Z9lua_yieldP9lua_Statei(ptr noundef %0, i32 noundef %1) #2 {
  %3 = alloca ptr, align 8
  %4 = alloca i32, align 4
  store ptr %0, ptr %3, align 8, !tbaa !20
  store i32 %1, ptr %4, align 4, !tbaa !23
  %5 = load ptr, ptr %3, align 8, !tbaa !20
  %6 = getelementptr inbounds nuw %struct.lua_State, ptr %5, i32 0, i32 17
  %7 = load i16, ptr %6, align 8, !tbaa !72
  %8 = zext i16 %7 to i32
  %9 = load ptr, ptr %3, align 8, !tbaa !20
  %10 = getelementptr inbounds nuw %struct.lua_State, ptr %9, i32 0, i32 18
  %11 = load i16, ptr %10, align 2, !tbaa !91
  %12 = zext i16 %11 to i32
  %13 = icmp sgt i32 %8, %12
  br i1 %13, label %14, label %16

14:                                               ; preds = %2
  %15 = load ptr, ptr %3, align 8, !tbaa !20
  call void (ptr, ptr, ...) @_Z14luaG_runerrorLP9lua_StatePKcz(ptr noundef %15, ptr noundef @.str.6) #17
  unreachable

16:                                               ; preds = %2
  %17 = load ptr, ptr %3, align 8, !tbaa !20
  %18 = getelementptr inbounds nuw %struct.lua_State, ptr %17, i32 0, i32 7
  %19 = load ptr, ptr %18, align 8, !tbaa !51
  %20 = load i32, ptr %4, align 4, !tbaa !23
  %21 = sext i32 %20 to i64
  %22 = sub i64 0, %21
  %23 = getelementptr inbounds %struct.lua_TValue, ptr %19, i64 %22
  %24 = load ptr, ptr %3, align 8, !tbaa !20
  %25 = getelementptr inbounds nuw %struct.lua_State, ptr %24, i32 0, i32 8
  store ptr %23, ptr %25, align 8, !tbaa !49
  %26 = load ptr, ptr %3, align 8, !tbaa !20
  %27 = getelementptr inbounds nuw %struct.lua_State, ptr %26, i32 0, i32 3
  store i8 1, ptr %27, align 1, !tbaa !90
  ret i32 -1
}