; Function Attrs: mustprogress uwtable
define dso_local noundef i32 @_Z9lua_yieldP9lua_Statei(ptr noundef %0, i32 noundef %1) local_unnamed_addr #0 {
  %3 = getelementptr inbounds nuw i8, ptr %0, i64 80
  %4 = load i16, ptr %3, align 8, !tbaa !55
  %5 = getelementptr inbounds nuw i8, ptr %0, i64 82
  %6 = load i16, ptr %5, align 2, !tbaa !73
  %7 = icmp ugt i16 %4, %6
  br i1 %7, label %8, label %9

8:                                                ; preds = %2
  tail call void (ptr, ptr, ...) @_Z14luaG_runerrorLP9lua_StatePKcz(ptr noundef nonnull %0, ptr noundef nonnull @.str.6) #18
  unreachable

9:                                                ; preds = %2
  %10 = getelementptr inbounds nuw i8, ptr %0, i64 8
  %11 = load ptr, ptr %10, align 8, !tbaa !37
  %12 = sext i32 %1 to i64
  %13 = sub nsw i64 0, %12
  %14 = getelementptr inbounds %struct.lua_TValue, ptr %11, i64 %13
  %15 = getelementptr inbounds nuw i8, ptr %0, i64 16
  store ptr %14, ptr %15, align 8, !tbaa !35
  %16 = getelementptr inbounds nuw i8, ptr %0, i64 3
  store i8 1, ptr %16, align 1, !tbaa !72
  ret i32 -1
}